target datalayout = "e-m:e-p270:32:32-p271:32:32-p272:64:64-i64:64-i128:128-f80:128-n8:16:32:64-S128"
target triple = "x86_64-pc-linux-gnu"

%struct.Amap_Man_t_ = type { ptr, ptr, float, float, i32, i32, ptr, ptr, ptr, ptr, ptr, ptr, ptr, ptr, [7 x i32], i32, i32, i32, ptr, ptr, ptr, ptr, ptr, ptr, ptr, ptr, i32, i32, i32, i32 }
%struct.Amap_Obj_t_ = type { i64, i32, i32, i32, i32, [3 x i32], %union.anon, float, [2 x i32], %struct.Amap_Mat_t_ }
%union.anon = type { ptr }
%struct.Amap_Mat_t_ = type { ptr, ptr, float, float, float }
%struct.Vec_Ptr_t_ = type { i32, i32, ptr }

; Function Attrs: inlinehint nounwind uwtable
define internal ptr @Amap_ManObj(ptr noundef %0, i32 noundef %1) #4 {
  %3 = alloca ptr, align 8
  %4 = alloca i32, align 4
  store ptr %0, ptr %3, align 8, !tbaa !3
  store i32 %1, ptr %4, align 4, !tbaa !10
  %5 = load ptr, ptr %3, align 8, !tbaa !3
  %6 = getelementptr inbounds nuw %struct.Amap_Man_t_, ptr %5, i32 0, i32 8
  %7 = load ptr, ptr %6, align 8, !tbaa !24
  %8 = load i32, ptr %4, align 4, !tbaa !10
  %9 = call ptr @Vec_PtrEntry(ptr noundef %7, i32 noundef %8)
  ret ptr %9
}

; Function Attrs: inlinehint nounwind uwtable
define internal i32 @Abc_Lit2Var(i32 noundef %0) #4 {
  %2 = alloca i32, align 4
  store i32 %0, ptr %2, align 4, !tbaa !10
  %3 = load i32, ptr %2, align 4, !tbaa !10
  %4 = ashr i32 %3, 1
  ret i32 %4
}

; Function Attrs: inlinehint nounwind uwtable
define internal i32 @Abc_MaxInt(i32 noundef %0, i32 noundef %1) #4 {
  %3 = alloca i32, align 4
  %4 = alloca i32, align 4
  store i32 %0, ptr %3, align 4, !tbaa !10
  store i32 %1, ptr %4, align 4, !tbaa !10
  %5 = load i32, ptr %3, align 4, !tbaa !10
  %6 = load i32, ptr %4, align 4, !tbaa !10
  %7 = icmp sgt i32 %5, %6
  br i1 %7, label %8, label %10

8:                                                ; preds = %2
  %9 = load i32, ptr %3, align 4, !tbaa !10
  br label %12

10:                                               ; preds = %2
  %11 = load i32, ptr %4, align 4, !tbaa !10
  br label %12

12:                                               ; preds = %10, %8
  %13 = phi i32 [ %9, %8 ], [ %11, %10 ]
  ret i32 %13
}

; Function Attrs: inlinehint nounwind uwtable
define internal ptr @Amap_ObjFanin0(ptr noundef %0, ptr noundef %1) #4 {
  %3 = alloca ptr, align 8
  %4 = alloca ptr, align 8
  store ptr %0, ptr %3, align 8, !tbaa !3
  store ptr %1, ptr %4, align 8, !tbaa !25
  %5 = load ptr, ptr %3, align 8, !tbaa !3
  %6 = load ptr, ptr %4, align 8, !tbaa !25
  %7 = getelementptr inbounds nuw %struct.Amap_Obj_t_, ptr %6, i32 0, i32 5
  %8 = getelementptr inbounds [3 x i32], ptr %7, i64 0, i64 0
  %9 = load i32, ptr %8, align 8, !tbaa !10
  %10 = call i32 @Abc_Lit2Var(i32 noundef %9)
  %11 = call ptr @Amap_ManObj(ptr noundef %5, i32 noundef %10)
  ret ptr %11
}

; Function Attrs: inlinehint nounwind uwtable
define internal ptr @Vec_PtrEntry(ptr noundef %0, i32 noundef %1) #4 {
  %3 = alloca ptr, align 8
  %4 = alloca i32, align 4
  store ptr %0, ptr %3, align 8, !tbaa !28
  store i32 %1, ptr %4, align 4, !tbaa !10
  %5 = load ptr, ptr %3, align 8, !tbaa !28
  %6 = getelementptr inbounds nuw %struct.Vec_Ptr_t_, ptr %5, i32 0, i32 2
  %7 = load ptr, ptr %6, align 8, !tbaa !31
  %8 = load i32, ptr %4, align 4, !tbaa !10
  %9 = sext i32 %8 to i64
  %10 = getelementptr inbounds ptr, ptr %7, i64 %9
  %11 = load ptr, ptr %10, align 8, !tbaa !32
  ret ptr %11
}

; Function Attrs: inlinehint nounwind uwtable
define internal i32 @Vec_PtrSize(ptr noundef %0) #4 {
  %2 = alloca ptr, align 8
  store ptr %0, ptr %2, align 8, !tbaa !28
  %3 = load ptr, ptr %2, align 8, !tbaa !28
  %4 = getelementptr inbounds nuw %struct.Vec_Ptr_t_, ptr %3, i32 0, i32 1
  %5 = load i32, ptr %4, align 4, !tbaa !29
  ret i32 %5
}

; Function Attrs: nounwind uwtable
define float @Amap_ManMaxDelay(ptr noundef %0) #0 {
  %2 = alloca ptr, align 8
  %3 = alloca ptr, align 8
  %4 = alloca float, align 4
  %5 = alloca i32, align 4
  store ptr %0, ptr %2, align 8, !tbaa !3
  call void @llvm.lifetime.start.p0(i64 8, ptr %3) #12
  call void @llvm.lifetime.start.p0(i64 4, ptr %4) #12
  store float 0.000000e+00, ptr %4, align 4, !tbaa !33
  call void @llvm.lifetime.start.p0(i64 4, ptr %5) #12
  store i32 0, ptr %5, align 4, !tbaa !10
  br label %6

6:                                                ; preds = %33, %1
  %7 = load i32, ptr %5, align 4, !tbaa !10
  %8 = load ptr, ptr %2, align 8, !tbaa !3
  %9 = getelementptr inbounds nuw %struct.Amap_Man_t_, ptr %8, i32 0, i32 7
  %10 = load ptr, ptr %9, align 8, !tbaa !34
  %11 = call i32 @Vec_PtrSize(ptr noundef %10)
  %12 = icmp slt i32 %7, %11
  br i1 %12, label %13, label %19

13:                                               ; preds = %6
  %14 = load ptr, ptr %2, align 8, !tbaa !3
  %15 = getelementptr inbounds nuw %struct.Amap_Man_t_, ptr %14, i32 0, i32 7
  %16 = load ptr, ptr %15, align 8, !tbaa !34
  %17 = load i32, ptr %5, align 4, !tbaa !10
  %18 = call ptr @Vec_PtrEntry(ptr noundef %16, i32 noundef %17)
  store ptr %18, ptr %3, align 8, !tbaa !25
  br label %19

19:                                               ; preds = %13, %6
  %20 = phi i1 [ false, %6 ], [ true, %13 ]
  br i1 %20, label %21, label %36

21:                                               ; preds = %19
  %22 = load float, ptr %4, align 4, !tbaa !33
  %23 = fptosi float %22 to i32
  %24 = load ptr, ptr %2, align 8, !tbaa !3
  %25 = load ptr, ptr %3, align 8, !tbaa !25
  %26 = call ptr @Amap_ObjFanin0(ptr noundef %24, ptr noundef %25)
  %27 = getelementptr inbounds nuw %struct.Amap_Obj_t_, ptr %26, i32 0, i32 9
  %28 = getelementptr inbounds nuw %struct.Amap_Mat_t_, ptr %27, i32 0, i32 4
  %29 = load float, ptr %28, align 8, !tbaa !35
  %30 = fptosi float %29 to i32
  %31 = call i32 @Abc_MaxInt(i32 noundef %23, i32 noundef %30)
  %32 = sitofp i32 %31 to float
  store float %32, ptr %4, align 4, !tbaa !33
  br label %33

33:                                               ; preds = %21
  %34 = load i32, ptr %5, align 4, !tbaa !10
  %35 = add nsw i32 %34, 1
  store i32 %35, ptr %5, align 4, !tbaa !10
  br label %6, !llvm.loop !39

36:                                               ; preds = %19
  %37 = load float, ptr %4, align 4, !tbaa !33
  call void @llvm.lifetime.end.p0(i64 4, ptr %5) #12
  call void @llvm.lifetime.end.p0(i64 4, ptr %4) #12
  call void @llvm.lifetime.end.p0(i64 8, ptr %3) #12
  ret float %37
}