; Function Attrs: nofree norecurse nosync nounwind memory(read, inaccessiblemem: none) uwtable
define noundef float @Amap_ManMaxDelay(ptr noundef readonly captures(none) %0) local_unnamed_addr #5 {
  %2 = getelementptr inbounds nuw i8, ptr %0, i64 40
  %3 = load ptr, ptr %2, align 8, !tbaa !28
  %4 = getelementptr i8, ptr %3, i64 4
  %.val = load i32, ptr %4, align 4, !tbaa !21
  %5 = icmp sgt i32 %.val, 0
  br i1 %5, label %.lr.ph, label %.critedge

.lr.ph:                                           ; preds = %1
  %6 = getelementptr i8, ptr %3, i64 8
  %.val9 = load ptr, ptr %6, align 8, !tbaa !23
  %7 = getelementptr i8, ptr %0, i64 48
  %.val10 = load ptr, ptr %7, align 8, !tbaa !20
  %8 = getelementptr i8, ptr %.val10, i64 8
  %.val10.val = load ptr, ptr %8, align 8, !tbaa !23
  %wide.trip.count = zext nneg i32 %.val to i64
  br label %9

9:                                                ; preds = %.lr.ph, %9
  %indvars.iv = phi i64 [ 0, %.lr.ph ], [ %indvars.iv.next, %9 ]
  %.0812 = phi float [ 0.000000e+00, %.lr.ph ], [ %22, %9 ]
  %10 = getelementptr inbounds nuw ptr, ptr %.val9, i64 %indvars.iv
  %11 = load ptr, ptr %10, align 8, !tbaa !24
  %12 = fptosi float %.0812 to i32
  %13 = getelementptr i8, ptr %11, i64 24
  %.val11 = load i32, ptr %13, align 8, !tbaa !25
  %14 = ashr i32 %.val11, 1
  %15 = sext i32 %14 to i64
  %16 = getelementptr inbounds ptr, ptr %.val10.val, i64 %15
  %17 = load ptr, ptr %16, align 8, !tbaa !24
  %18 = getelementptr inbounds nuw i8, ptr %17, i64 88
  %19 = load float, ptr %18, align 8, !tbaa !29
  %20 = fptosi float %19 to i32
  %21 = tail call noundef i32 @llvm.smax.i32(i32 %12, i32 %20)
  %22 = sitofp i32 %21 to float
  %indvars.iv.next = add nuw nsw i64 %indvars.iv, 1
  %exitcond.not = icmp eq i64 %indvars.iv.next, %wide.trip.count
  br i1 %exitcond.not, label %.critedge, label %9, !llvm.loop !33

.critedge:                                        ; preds = %9, %1
  %.08.lcssa = phi float [ 0.000000e+00, %1 ], [ %22, %9 ]
  ret float %.08.lcssa
}